; Function Attrs: nofree norecurse nosync nounwind memory(readwrite, inaccessiblemem: none) uwtable
define i32 @Gia_ManHasDangling(ptr noundef readonly captures(none) %0) local_unnamed_addr #1 {
  %2 = getelementptr i8, ptr %0, i64 32
  %3 = getelementptr inbounds nuw i8, ptr %0, i64 24
  %4 = load i32, ptr %3, align 8
  %5 = icmp sgt i32 %4, 0
  br i1 %5, label %.lr.ph, label %Gia_ManCleanMark0.exit

.lr.ph:                                           ; preds = %1
  %6 = getelementptr i8, ptr %0, i64 40
  %.val3875 = load ptr, ptr %2, align 8
  %.not76 = icmp eq ptr %.val3875, null
  br i1 %.not76, label %.critedge, label %.lr.ph78

7:                                                ; preds = %63
  %.val38 = load ptr, ptr %2, align 8
  %8 = getelementptr inbounds nuw %struct.Gia_Obj_t_, ptr %.val38, i64 %indvars.iv.next
  %.not = icmp eq ptr %.val38, null
  br i1 %.not, label %.critedge, label %.lr.ph78, !llvm.loop !45

.lr.ph78:                                         ; preds = %.lr.ph, %7
  %9 = phi ptr [ %8, %7 ], [ %.val3875, %.lr.ph ]
  %indvars.iv77 = phi i64 [ %indvars.iv.next, %7 ], [ 0, %.lr.ph ]
  %10 = load i64, ptr %9, align 4
  %11 = and i64 %10, -1073741825
  store i64 %11, ptr %9, align 4
  %12 = and i64 %10, 2147483648
  %.not.i = icmp ne i64 %12, 0
  %13 = and i64 %10, 536870911
  %14 = icmp ne i64 %13, 536870911
  %narrow.i = and i1 %.not.i, %14
  br i1 %narrow.i, label %15, label %20

15:                                               ; preds = %.lr.ph78
  %16 = sub nsw i64 0, %13
  %17 = getelementptr inbounds %struct.Gia_Obj_t_, ptr %9, i64 %16
  %18 = load i64, ptr %17, align 4
  %19 = or i64 %18, 1073741824
  store i64 %19, ptr %17, align 4
  br label %63

20:                                               ; preds = %.lr.ph78
  %.val42 = load ptr, ptr %6, align 8
  %.not.i.i = icmp eq ptr %.val42, null
  br i1 %.not.i.i, label %Gia_ObjIsMux.exit.thread, label %Gia_ObjIsMux.exit

Gia_ObjIsMux.exit:                                ; preds = %20
  %.val41 = load ptr, ptr %2, align 8
  %21 = ptrtoint ptr %9 to i64
  %22 = ptrtoint ptr %.val41 to i64
  %23 = sub i64 %21, %22
  %24 = sdiv exact i64 %23, 12
  %sext.i = shl i64 %24, 32
  %25 = ashr exact i64 %sext.i, 30
  %26 = getelementptr inbounds i8, ptr %.val42, i64 %25
  %27 = load i32, ptr %26, align 4
  %.not52 = icmp eq i32 %27, 0
  br i1 %.not52, label %Gia_ObjIsMux.exit.thread, label %Gia_ObjFanin2.exit

Gia_ObjFanin2.exit:                               ; preds = %Gia_ObjIsMux.exit
  %28 = sub nsw i64 0, %13
  %29 = getelementptr inbounds %struct.Gia_Obj_t_, ptr %9, i64 %28
  %30 = load i64, ptr %29, align 4
  %31 = or i64 %30, 1073741824
  store i64 %31, ptr %29, align 4
  %32 = load i64, ptr %9, align 4
  %33 = lshr i64 %32, 32
  %34 = and i64 %33, 536870911
  %35 = sub nsw i64 0, %34
  %36 = getelementptr inbounds %struct.Gia_Obj_t_, ptr %9, i64 %35
  %37 = load i64, ptr %36, align 4
  %38 = or i64 %37, 1073741824
  store i64 %38, ptr %36, align 4
  %39 = load ptr, ptr %6, align 8, !nonnull !46, !noundef !46
  %.val5.i = load ptr, ptr %2, align 8
  %40 = ptrtoint ptr %.val5.i to i64
  %41 = sub i64 %21, %40
  %42 = sdiv exact i64 %41, 12
  %sext.i45 = shl i64 %42, 32
  %43 = ashr exact i64 %sext.i45, 30
  %44 = getelementptr inbounds i8, ptr %39, i64 %43
  %45 = load i32, ptr %44, align 4
  %46 = ashr i32 %45, 1
  %47 = sext i32 %46 to i64
  %48 = getelementptr inbounds %struct.Gia_Obj_t_, ptr %.val5.i, i64 %47
  %49 = load i64, ptr %48, align 4
  %50 = or i64 %49, 1073741824
  store i64 %50, ptr %48, align 4
  br label %63

Gia_ObjIsMux.exit.thread:                         ; preds = %20, %Gia_ObjIsMux.exit
  %.not.i46 = icmp eq i64 %12, 0
  %narrow.i47 = and i1 %.not.i46, %14
  br i1 %narrow.i47, label %51, label %63

51:                                               ; preds = %Gia_ObjIsMux.exit.thread
  %52 = sub nsw i64 0, %13
  %53 = getelementptr inbounds %struct.Gia_Obj_t_, ptr %9, i64 %52
  %54 = load i64, ptr %53, align 4
  %55 = or i64 %54, 1073741824
  store i64 %55, ptr %53, align 4
  %56 = load i64, ptr %9, align 4
  %57 = lshr i64 %56, 32
  %58 = and i64 %57, 536870911
  %59 = sub nsw i64 0, %58
  %60 = getelementptr inbounds %struct.Gia_Obj_t_, ptr %9, i64 %59
  %61 = load i64, ptr %60, align 4
  %62 = or i64 %61, 1073741824
  store i64 %62, ptr %60, align 4
  br label %63

63:                                               ; preds = %15, %Gia_ObjIsMux.exit.thread, %51, %Gia_ObjFanin2.exit
  %indvars.iv.next = add nuw nsw i64 %indvars.iv77, 1
  %64 = load i32, ptr %3, align 8
  %65 = sext i32 %64 to i64
  %66 = icmp slt i64 %indvars.iv.next, %65
  br i1 %66, label %7, label %.critedge, !llvm.loop !45

.critedge:                                        ; preds = %63, %7, %.lr.ph
  %.lcssa = phi i32 [ %4, %.lr.ph ], [ %64, %7 ], [ %64, %63 ]
  %67 = icmp sgt i32 %.lcssa, 0
  br i1 %67, label %.lr.ph61, label %Gia_ManCleanMark0.exit

.lr.ph61:                                         ; preds = %.critedge
  %.val = load ptr, ptr %2, align 8
  %.not32 = icmp eq ptr %.val, null
  br i1 %.not32, label %.lr.ph.i.preheader, label %.lr.ph61.split.preheader

.lr.ph61.split.preheader:                         ; preds = %.lr.ph61
  %wide.trip.count = zext nneg i32 %.lcssa to i64
  br label %.lr.ph61.split

.lr.ph61.split:                                   ; preds = %.lr.ph61.split.preheader, %.lr.ph61.split
  %indvars.iv66 = phi i64 [ 0, %.lr.ph61.split.preheader ], [ %indvars.iv.next67, %.lr.ph61.split ]
  %.060 = phi i32 [ 0, %.lr.ph61.split.preheader ], [ %.1, %.lr.ph61.split ]
  %68 = getelementptr inbounds nuw %struct.Gia_Obj_t_, ptr %.val, i64 %indvars.iv66
  %.val39 = load i64, ptr %68, align 4
  %69 = and i64 %.val39, 2147483648
  %.not.i48 = icmp eq i64 %69, 0
  %70 = and i64 %.val39, 536870911
  %71 = icmp ne i64 %70, 536870911
  %narrow.i49.not.not = and i1 %.not.i48, %71
  %72 = and i64 %.val39, 1073741824
  %.not34 = icmp eq i64 %72, 0
  %narrow = select i1 %narrow.i49.not.not, i1 %.not34, i1 false
  %73 = zext i1 %narrow to i32
  %.1 = add nuw nsw i32 %.060, %73
  %indvars.iv.next67 = add nuw nsw i64 %indvars.iv66, 1
  %exitcond.not = icmp eq i64 %indvars.iv.next67, %wide.trip.count
  br i1 %exitcond.not, label %.lr.ph.i.preheader, label %.lr.ph61.split, !llvm.loop !47

.lr.ph.i.preheader:                               ; preds = %.lr.ph61.split, %.lr.ph61
  %.0.lcssa74 = phi i32 [ 0, %.lr.ph61 ], [ %.1, %.lr.ph61.split ]
  br label %.lr.ph.i

.lr.ph.i:                                         ; preds = %.lr.ph.i.preheader, %74
  %indvars.iv.i = phi i64 [ %indvars.iv.next.i, %74 ], [ 0, %.lr.ph.i.preheader ]
  %.val.i = load ptr, ptr %2, align 8
  %.not.i50 = icmp eq ptr %.val.i, null
  br i1 %.not.i50, label %Gia_ManCleanMark0.exit, label %74

74:                                               ; preds = %.lr.ph.i
  %75 = getelementptr inbounds nuw %struct.Gia_Obj_t_, ptr %.val.i, i64 %indvars.iv.i
  %76 = load i64, ptr %75, align 4
  %77 = and i64 %76, -1073741825
  store i64 %77, ptr %75, align 4
  %indvars.iv.next.i = add nuw nsw i64 %indvars.iv.i, 1
  %78 = load i32, ptr %3, align 8
  %79 = sext i32 %78 to i64
  %80 = icmp slt i64 %indvars.iv.next.i, %79
  br i1 %80, label %.lr.ph.i, label %Gia_ManCleanMark0.exit, !llvm.loop !10

Gia_ManCleanMark0.exit:                           ; preds = %.lr.ph.i, %74, %1, %.critedge
  %.0.lcssa71 = phi i32 [ 0, %.critedge ], [ 0, %1 ], [ %.0.lcssa74, %74 ], [ %.0.lcssa74, %.lr.ph.i ]
  ret i32 %.0.lcssa71
}